; ModuleID = '16/491.c'
source_filename = "16/491.c"
target datalayout = "e-m:e-p270:32:32-p271:32:32-p272:64:64-i64:64-f80:128-n8:16:32:64-S128"
target triple = "x86_64-pc-linux-gnu"

@.str = private unnamed_addr constant [3 x i8] c"%d\00", align 1
@.str.1 = private unnamed_addr constant [6 x i8] c"%04d\0A\00", align 1
@.str.2 = private unnamed_addr constant [6 x i8] c"%03d\0A\00", align 1
@.str.3 = private unnamed_addr constant [6 x i8] c"%02d\0A\00", align 1
@.str.4 = private unnamed_addr constant [4 x i8] c"%d\0A\00", align 1

; Function Attrs: noinline nounwind uwtable
define dso_local i32 @main() #0 {
  %1 = alloca i32, align 4
  %2 = alloca i32, align 4
  %3 = alloca i32, align 4
  %4 = alloca i32, align 4
  %5 = alloca i32, align 4
  %6 = alloca i32, align 4
  %7 = alloca i32, align 4
  %8 = alloca i32, align 4
  %9 = alloca i32, align 4
  %10 = alloca i32, align 4
  store i32 0, i32* %1, align 4
  %11 = call i32 (i8*, ...) @__isoc99_scanf(i8* getelementptr inbounds ([3 x i8], [3 x i8]* @.str, i64 0, i64 0), i32* %9)
  %12 = load i32, i32* %9, align 4
  %13 = srem i32 %12, 10
  store i32 %13, i32* %2, align 4
  %14 = load i32, i32* %9, align 4
  %15 = srem i32 %14, 100
  store i32 %15, i32* %3, align 4
  %16 = load i32, i32* %3, align 4
  %17 = sdiv i32 %16, 10
  store i32 %17, i32* %4, align 4
  %18 = load i32, i32* %9, align 4
  %19 = srem i32 %18, 1000
  store i32 %19, i32* %5, align 4
  %20 = load i32, i32* %5, align 4
  %21 = sdiv i32 %20, 100
  store i32 %21, i32* %6, align 4
  %22 = load i32, i32* %9, align 4
  store i32 %22, i32* %7, align 4
  %23 = load i32, i32* %7, align 4
  %24 = sdiv i32 %23, 1000
  store i32 %24, i32* %8, align 4
  %25 = load i32, i32* %8, align 4
  %26 = icmp ne i32 %25, 0
  br i1 %26, label %27, label %40

27:                                               ; preds = %0
  %28 = load i32, i32* %2, align 4
  %29 = mul nsw i32 %28, 1000
  %30 = load i32, i32* %4, align 4
  %31 = mul nsw i32 %30, 100
  %32 = add nsw i32 %29, %31
  %33 = load i32, i32* %6, align 4
  %34 = mul nsw i32 %33, 10
  %35 = add nsw i32 %32, %34
  %36 = load i32, i32* %8, align 4
  %37 = add nsw i32 %35, %36
  store i32 %37, i32* %10, align 4
  %38 = load i32, i32* %10, align 4
  %39 = call i32 (i8*, ...) @printf(i8* getelementptr inbounds ([6 x i8], [6 x i8]* @.str.1, i64 0, i64 0), i32 %38)
  br label %75

40:                                               ; preds = %0
  %41 = load i32, i32* %8, align 4
  %42 = icmp eq i32 %41, 0
  br i1 %42, label %43, label %56

43:                                               ; preds = %40
  %44 = load i32, i32* %6, align 4
  %45 = icmp ne i32 %44, 0
  br i1 %45, label %46, label %56

46:                                               ; preds = %43
  %47 = load i32, i32* %2, align 4
  %48 = mul nsw i32 %47, 100
  %49 = load i32, i32* %4, align 4
  %50 = mul nsw i32 %49, 10
  %51 = add nsw i32 %48, %50
  %52 = load i32, i32* %6, align 4
  %53 = add nsw i32 %51, %52
  store i32 %53, i32* %10, align 4
  %54 = load i32, i32* %10, align 4
  %55 = call i32 (i8*, ...) @printf(i8* getelementptr inbounds ([6 x i8], [6 x i8]* @.str.2, i64 0, i64 0), i32 %54)
  br label %74

56:                                               ; preds = %43, %40
  %57 = load i32, i32* %6, align 4
  %58 = icmp eq i32 %57, 0
  br i1 %58, label %59, label %69

59:                                               ; preds = %56
  %60 = load i32, i32* %4, align 4
  %61 = icmp ne i32 %60, 0
  br i1 %61, label %62, label %69

62:                                               ; preds = %59
  %63 = load i32, i32* %2, align 4
  %64 = mul nsw i32 %63, 10
  %65 = load i32, i32* %4, align 4
  %66 = add nsw i32 %64, %65
  store i32 %66, i32* %10, align 4
  %67 = load i32, i32* %10, align 4
  %68 = call i32 (i8*, ...) @printf(i8* getelementptr inbounds ([6 x i8], [6 x i8]* @.str.3, i64 0, i64 0), i32 %67)
  br label %73

69:                                               ; preds = %59, %56
  %70 = load i32, i32* %2, align 4
  store i32 %70, i32* %10, align 4
  %71 = load i32, i32* %10, align 4
  %72 = call i32 (i8*, ...) @printf(i8* getelementptr inbounds ([4 x i8], [4 x i8]* @.str.4, i64 0, i64 0), i32 %71)
  br label %73

73:                                               ; preds = %69, %62
  br label %74

74:                                               ; preds = %73, %46
  br label %75

75:                                               ; preds = %74, %27
  %76 = load i32, i32* %1, align 4
  ret i32 %76
}

declare dso_local i32 @__isoc99_scanf(i8*, ...) #1

declare dso_local i32 @printf(i8*, ...) #1


!llvm.module.flags = !{!0}
!llvm.ident = !{!1}

!0 = !{i32 1, !"wchar_size", i32 4}
!1 = !{!"clang version 10.0.0-4ubuntu1 "}
