; ModuleID = 'source-C-CXX/15/491.c'
source_filename = "source-C-CXX/15/491.c"
target datalayout = "e-m:e-p270:32:32-p271:32:32-p272:64:64-i64:64-f80:128-n8:16:32:64-S128"
target triple = "x86_64-pc-linux-gnu"

@.str = private unnamed_addr constant [3 x i8] c"%d\00", align 1
@.str.1 = private unnamed_addr constant [6 x i8] c"%04d\0A\00", align 1
@.str.2 = private unnamed_addr constant [6 x i8] c"%03d\0A\00", align 1
@.str.3 = private unnamed_addr constant [6 x i8] c"%02d\0A\00", align 1
@.str.4 = private unnamed_addr constant [4 x i8] c"%d\0A\00", align 1

; Function Attrs: nofree nounwind sspstrong uwtable
define dso_local i32 @main() local_unnamed_addr #0 {
  %1 = alloca i32, align 4
  %2 = bitcast i32* %1 to i8*
  call void @llvm.lifetime.start.p0i8(i64 4, i8* nonnull %2) #3
  %3 = call i32 (i8*, ...) @__isoc99_scanf(i8* getelementptr inbounds ([3 x i8], [3 x i8]* @.str, i64 0, i64 0), i32* nonnull %1)
  %4 = load i32, i32* %1, align 4, !tbaa !5
  %5 = srem i32 %4, 10
  %6 = srem i32 %4, 100
  %7 = trunc i32 %6 to i8
  %8 = sdiv i8 %7, 10
  %9 = sext i8 %8 to i32
  %10 = srem i32 %4, 1000
  %11 = sdiv i32 %4, 1000
  %12 = trunc i32 %10 to i16
  %13 = sdiv i16 %12, 100
  %14 = sext i16 %13 to i32
  %15 = add i32 %4, 999
  %16 = icmp ult i32 %15, 1999
  br i1 %16, label %25, label %17

17:                                               ; preds = %0
  %18 = mul nsw i32 %5, 1000
  %19 = mul nsw i32 %9, 100
  %20 = mul nsw i32 %14, 10
  %21 = add nsw i32 %18, %11
  %22 = add nsw i32 %21, %19
  %23 = add nsw i32 %22, %20
  %24 = call i32 (i8*, ...) @printf(i8* nonnull dereferenceable(1) getelementptr inbounds ([6 x i8], [6 x i8]* @.str.1, i64 0, i64 0), i32 %23)
  br label %43

25:                                               ; preds = %0
  %26 = add nsw i32 %10, 99
  %27 = icmp ult i32 %26, 199
  br i1 %27, label %34, label %28

28:                                               ; preds = %25
  %29 = mul nsw i32 %5, 100
  %30 = mul nsw i32 %9, 10
  %31 = add nsw i32 %29, %14
  %32 = add nsw i32 %31, %30
  %33 = call i32 (i8*, ...) @printf(i8* nonnull dereferenceable(1) getelementptr inbounds ([6 x i8], [6 x i8]* @.str.2, i64 0, i64 0), i32 %32)
  br label %43

34:                                               ; preds = %25
  %35 = add nsw i32 %6, 9
  %36 = icmp ult i32 %35, 19
  br i1 %36, label %41, label %37

37:                                               ; preds = %34
  %38 = mul nsw i32 %5, 10
  %39 = add nsw i32 %38, %9
  %40 = call i32 (i8*, ...) @printf(i8* nonnull dereferenceable(1) getelementptr inbounds ([6 x i8], [6 x i8]* @.str.3, i64 0, i64 0), i32 %39)
  br label %43

41:                                               ; preds = %34
  %42 = call i32 (i8*, ...) @printf(i8* nonnull dereferenceable(1) getelementptr inbounds ([4 x i8], [4 x i8]* @.str.4, i64 0, i64 0), i32 %5)
  br label %43

43:                                               ; preds = %28, %41, %37, %17
  call void @llvm.lifetime.end.p0i8(i64 4, i8* nonnull %2) #3
  ret i32 0
}

; Function Attrs: argmemonly mustprogress nofree nosync nounwind willreturn
declare void @llvm.lifetime.start.p0i8(i64 immarg, i8* nocapture) #1

; Function Attrs: nofree nounwind
declare noundef i32 @__isoc99_scanf(i8* nocapture noundef readonly, ...) local_unnamed_addr #2

; Function Attrs: nofree nounwind
declare noundef i32 @printf(i8* nocapture noundef readonly, ...) local_unnamed_addr #2

; Function Attrs: argmemonly mustprogress nofree nosync nounwind willreturn
declare void @llvm.lifetime.end.p0i8(i64 immarg, i8* nocapture) #1


!llvm.module.flags = !{!0, !1, !2, !3}
!llvm.ident = !{!4}

!0 = !{i32 1, !"wchar_size", i32 4}
!1 = !{i32 7, !"PIC Level", i32 2}
!2 = !{i32 7, !"PIE Level", i32 2}
!3 = !{i32 7, !"uwtable", i32 1}
!4 = !{!"clang version 13.0.0"}
!5 = !{!6, !6, i64 0}
!6 = !{!"int", !7, i64 0}
!7 = !{!"omnipotent char", !8, i64 0}
!8 = !{!"Simple C/C++ TBAA"}
